target datalayout = "e-m:e-p270:32:32-p271:32:32-p272:64:64-i64:64-i128:128-f80:128-n8:16:32:64-S128"
target triple = "x86_64-pc-linux-gnu"

%struct.RangeBound = type { i64, i8, i8, i8 }
%struct.FunctionCallInfoBaseData = type { ptr, ptr, ptr, i32, i8, i16, [0 x %struct.NullableDatum] }
%struct.NullableDatum = type { i64, i8 }
%struct.RangeIOData = type { ptr, %struct.FmgrInfo, i32 }
%struct.FmgrInfo = type { ptr, i32, i16, i8, i8, i8, ptr, ptr, ptr }
%struct.RangeType = type { i32, i32 }
%struct.anon = type { i32, [0 x i8] }
%struct.StringInfoData = type { ptr, i32, i32, i32 }

; Function Attrs: inlinehint nounwind uwtable
define internal void @pq_writeint8(ptr noalias noundef %0, i8 noundef zeroext %1) #2 {
  %3 = alloca ptr, align 8
  %4 = alloca i8, align 1
  %5 = alloca i8, align 1
  store ptr %0, ptr %3, align 8
  store i8 %1, ptr %4, align 1
  call void @llvm.lifetime.start.p0(i64 1, ptr %5) #10
  %6 = load i8, ptr %4, align 1
  store i8 %6, ptr %5, align 1
  %7 = load ptr, ptr %3, align 8
  %8 = getelementptr inbounds nuw %struct.StringInfoData, ptr %7, i32 0, i32 0
  %9 = load ptr, ptr %8, align 8
  %10 = load ptr, ptr %3, align 8
  %11 = getelementptr inbounds nuw %struct.StringInfoData, ptr %10, i32 0, i32 1
  %12 = load i32, ptr %11, align 8
  %13 = sext i32 %12 to i64
  %14 = getelementptr inbounds i8, ptr %9, i64 %13
  call void @llvm.memcpy.p0.p0.i64(ptr align 1 %14, ptr align 1 %5, i64 1, i1 false)
  %15 = load ptr, ptr %3, align 8
  %16 = getelementptr inbounds nuw %struct.StringInfoData, ptr %15, i32 0, i32 1
  %17 = load i32, ptr %16, align 8
  %18 = sext i32 %17 to i64
  %19 = add i64 %18, 1
  %20 = trunc i64 %19 to i32
  store i32 %20, ptr %16, align 8
  call void @llvm.lifetime.end.p0(i64 1, ptr %5) #10
  ret void
}

; Function Attrs: inlinehint nounwind uwtable
define internal void @pq_writeint32(ptr noalias noundef %0, i32 noundef %1) #2 {
  %3 = alloca ptr, align 8
  %4 = alloca i32, align 4
  %5 = alloca i32, align 4
  store ptr %0, ptr %3, align 8
  store i32 %1, ptr %4, align 4
  call void @llvm.lifetime.start.p0(i64 4, ptr %5) #10
  %6 = load i32, ptr %4, align 4
  %7 = call i32 @llvm.bswap.i32(i32 %6)
  store i32 %7, ptr %5, align 4
  %8 = load ptr, ptr %3, align 8
  %9 = getelementptr inbounds nuw %struct.StringInfoData, ptr %8, i32 0, i32 0
  %10 = load ptr, ptr %9, align 8
  %11 = load ptr, ptr %3, align 8
  %12 = getelementptr inbounds nuw %struct.StringInfoData, ptr %11, i32 0, i32 1
  %13 = load i32, ptr %12, align 8
  %14 = sext i32 %13 to i64
  %15 = getelementptr inbounds i8, ptr %10, i64 %14
  call void @llvm.memcpy.p0.p0.i64(ptr align 1 %15, ptr align 4 %5, i64 4, i1 false)
  %16 = load ptr, ptr %3, align 8
  %17 = getelementptr inbounds nuw %struct.StringInfoData, ptr %16, i32 0, i32 1
  %18 = load i32, ptr %17, align 8
  %19 = sext i32 %18 to i64
  %20 = add i64 %19, 4
  %21 = trunc i64 %20 to i32
  store i32 %21, ptr %17, align 8
  call void @llvm.lifetime.end.p0(i64 4, ptr %5) #10
  ret void
}

; Function Attrs: inlinehint nounwind uwtable
define internal void @pq_sendint8(ptr noundef %0, i8 noundef zeroext %1) #2 {
  %3 = alloca ptr, align 8
  %4 = alloca i8, align 1
  store ptr %0, ptr %3, align 8
  store i8 %1, ptr %4, align 1
  %5 = load ptr, ptr %3, align 8
  call void @enlargeStringInfo(ptr noundef %5, i32 noundef 1)
  %6 = load ptr, ptr %3, align 8
  %7 = load i8, ptr %4, align 1
  call void @pq_writeint8(ptr noundef %6, i8 noundef zeroext %7)
  ret void
}

; Function Attrs: inlinehint nounwind uwtable
define internal ptr @DatumGetPointer(i64 noundef %0) #2 {
  %2 = alloca i64, align 8
  store i64 %0, ptr %2, align 8
  %3 = load i64, ptr %2, align 8
  %4 = inttoptr i64 %3 to ptr
  ret ptr %4
}

; Function Attrs: inlinehint nounwind uwtable
define internal void @pq_sendint32(ptr noundef %0, i32 noundef %1) #2 {
  %3 = alloca ptr, align 8
  %4 = alloca i32, align 4
  store ptr %0, ptr %3, align 8
  store i32 %1, ptr %4, align 4
  %5 = load ptr, ptr %3, align 8
  call void @enlargeStringInfo(ptr noundef %5, i32 noundef 4)
  %6 = load ptr, ptr %3, align 8
  %7 = load i32, ptr %4, align 4
  call void @pq_writeint32(ptr noundef %6, i32 noundef %7)
  ret void
}

; Function Attrs: inlinehint nounwind uwtable
define internal i64 @PointerGetDatum(ptr noundef %0) #2 {
  %2 = alloca ptr, align 8
  store ptr %0, ptr %2, align 8
  %3 = load ptr, ptr %2, align 8
  %4 = ptrtoint ptr %3 to i64
  ret i64 %4
}

; Function Attrs: inlinehint nounwind uwtable
define internal void @pq_sendbyte(ptr noundef %0, i8 noundef zeroext %1) #2 {
  %3 = alloca ptr, align 8
  %4 = alloca i8, align 1
  store ptr %0, ptr %3, align 8
  store i8 %1, ptr %4, align 1
  %5 = load ptr, ptr %3, align 8
  %6 = load i8, ptr %4, align 1
  call void @pq_sendint8(ptr noundef %5, i8 noundef zeroext %6)
  ret void
}

; Function Attrs: nounwind uwtable
define dso_local signext i8 @range_get_flags(ptr noundef %0) #0 {
  %2 = alloca ptr, align 8
  store ptr %0, ptr %2, align 8
  %3 = load ptr, ptr %2, align 8
  %4 = load ptr, ptr %2, align 8
  %5 = getelementptr inbounds nuw %struct.anon, ptr %4, i32 0, i32 0
  %6 = load i32, ptr %5, align 4
  %7 = lshr i32 %6, 2
  %8 = and i32 %7, 1073741823
  %9 = zext i32 %8 to i64
  %10 = getelementptr inbounds nuw i8, ptr %3, i64 %9
  %11 = getelementptr inbounds i8, ptr %10, i64 -1
  %12 = load i8, ptr %11, align 1
  ret i8 %12
}

; Function Attrs: inlinehint nounwind uwtable
define internal ptr @DatumGetRangeTypeP(i64 noundef %0) #2 {
  %2 = alloca i64, align 8
  store i64 %0, ptr %2, align 8
  %3 = load i64, ptr %2, align 8
  %4 = call ptr @DatumGetPointer(i64 noundef %3)
  %5 = call ptr @pg_detoast_datum(ptr noundef %4)
  ret ptr %5
}

; Function Attrs: nounwind uwtable
define dso_local i64 @range_send(ptr noundef %0) #0 {
  %2 = alloca ptr, align 8
  %3 = alloca ptr, align 8
  %4 = alloca ptr, align 8
  %5 = alloca ptr, align 8
  %6 = alloca i8, align 1
  %7 = alloca %struct.RangeBound, align 8
  %8 = alloca %struct.RangeBound, align 8
  %9 = alloca i8, align 1
  %10 = alloca i64, align 8
  %11 = alloca i32, align 4
  %12 = alloca ptr, align 8
  %13 = alloca i64, align 8
  %14 = alloca i32, align 4
  %15 = alloca ptr, align 8
  store ptr %0, ptr %2, align 8
  call void @llvm.lifetime.start.p0(i64 8, ptr %3) #10
  %16 = load ptr, ptr %2, align 8
  %17 = getelementptr inbounds nuw %struct.FunctionCallInfoBaseData, ptr %16, i32 0, i32 6
  %18 = getelementptr inbounds [0 x %struct.NullableDatum], ptr %17, i64 0, i64 0
  %19 = getelementptr inbounds nuw %struct.NullableDatum, ptr %18, i32 0, i32 0
  %20 = load i64, ptr %19, align 8
  %21 = call ptr @DatumGetRangeTypeP(i64 noundef %20)
  store ptr %21, ptr %3, align 8
  call void @llvm.lifetime.start.p0(i64 8, ptr %4) #10
  %22 = call ptr @makeStringInfo()
  store ptr %22, ptr %4, align 8
  call void @llvm.lifetime.start.p0(i64 8, ptr %5) #10
  call void @llvm.lifetime.start.p0(i64 1, ptr %6) #10
  call void @llvm.lifetime.start.p0(i64 16, ptr %7) #10
  call void @llvm.lifetime.start.p0(i64 16, ptr %8) #10
  call void @llvm.lifetime.start.p0(i64 1, ptr %9) #10
  call void @check_stack_depth()
  %23 = load ptr, ptr %2, align 8
  %24 = load ptr, ptr %3, align 8
  %25 = getelementptr inbounds nuw %struct.RangeType, ptr %24, i32 0, i32 1
  %26 = load i32, ptr %25, align 4
  %27 = call ptr @get_range_io_data(ptr noundef %23, i32 noundef %26, i32 noundef 3)
  store ptr %27, ptr %5, align 8
  %28 = load ptr, ptr %5, align 8
  %29 = getelementptr inbounds nuw %struct.RangeIOData, ptr %28, i32 0, i32 0
  %30 = load ptr, ptr %29, align 8
  %31 = load ptr, ptr %3, align 8
  call void @range_deserialize(ptr noundef %30, ptr noundef %31, ptr noundef %7, ptr noundef %8, ptr noundef %9)
  %32 = load ptr, ptr %3, align 8
  %33 = call signext i8 @range_get_flags(ptr noundef %32)
  store i8 %33, ptr %6, align 1
  %34 = load ptr, ptr %4, align 8
  call void @pq_begintypsend(ptr noundef %34)
  %35 = load ptr, ptr %4, align 8
  %36 = load i8, ptr %6, align 1
  call void @pq_sendbyte(ptr noundef %35, i8 noundef zeroext %36)
  %37 = load i8, ptr %6, align 1
  %38 = sext i8 %37 to i32
  %39 = and i32 %38, 41
  %40 = icmp ne i32 %39, 0
  br i1 %40, label %64, label %41

41:                                               ; preds = %1
  call void @llvm.lifetime.start.p0(i64 8, ptr %10) #10
  %42 = load ptr, ptr %5, align 8
  %43 = getelementptr inbounds nuw %struct.RangeIOData, ptr %42, i32 0, i32 1
  %44 = getelementptr inbounds nuw %struct.RangeBound, ptr %7, i32 0, i32 0
  %45 = load i64, ptr %44, align 8
  %46 = call ptr @SendFunctionCall(ptr noundef %43, i64 noundef %45)
  %47 = call i64 @PointerGetDatum(ptr noundef %46)
  store i64 %47, ptr %10, align 8
  call void @llvm.lifetime.start.p0(i64 4, ptr %11) #10
  %48 = load i64, ptr %10, align 8
  %49 = inttoptr i64 %48 to ptr
  %50 = getelementptr inbounds nuw %struct.anon, ptr %49, i32 0, i32 0
  %51 = load i32, ptr %50, align 4
  %52 = lshr i32 %51, 2
  %53 = and i32 %52, 1073741823
  %54 = sub i32 %53, 4
  store i32 %54, ptr %11, align 4
  call void @llvm.lifetime.start.p0(i64 8, ptr %12) #10
  %55 = load i64, ptr %10, align 8
  %56 = inttoptr i64 %55 to ptr
  %57 = getelementptr inbounds nuw %struct.anon, ptr %56, i32 0, i32 1
  %58 = getelementptr inbounds [0 x i8], ptr %57, i64 0, i64 0
  store ptr %58, ptr %12, align 8
  %59 = load ptr, ptr %4, align 8
  %60 = load i32, ptr %11, align 4
  call void @pq_sendint32(ptr noundef %59, i32 noundef %60)
  %61 = load ptr, ptr %4, align 8
  %62 = load ptr, ptr %12, align 8
  %63 = load i32, ptr %11, align 4
  call void @pq_sendbytes(ptr noundef %61, ptr noundef %62, i32 noundef %63)
  call void @llvm.lifetime.end.p0(i64 8, ptr %12) #10
  call void @llvm.lifetime.end.p0(i64 4, ptr %11) #10
  call void @llvm.lifetime.end.p0(i64 8, ptr %10) #10
  br label %64

64:                                               ; preds = %41, %1
  %65 = load i8, ptr %6, align 1
  %66 = sext i8 %65 to i32
  %67 = and i32 %66, 81
  %68 = icmp ne i32 %67, 0
  br i1 %68, label %92, label %69

69:                                               ; preds = %64
  call void @llvm.lifetime.start.p0(i64 8, ptr %13) #10
  %70 = load ptr, ptr %5, align 8
  %71 = getelementptr inbounds nuw %struct.RangeIOData, ptr %70, i32 0, i32 1
  %72 = getelementptr inbounds nuw %struct.RangeBound, ptr %8, i32 0, i32 0
  %73 = load i64, ptr %72, align 8
  %74 = call ptr @SendFunctionCall(ptr noundef %71, i64 noundef %73)
  %75 = call i64 @PointerGetDatum(ptr noundef %74)
  store i64 %75, ptr %13, align 8
  call void @llvm.lifetime.start.p0(i64 4, ptr %14) #10
  %76 = load i64, ptr %13, align 8
  %77 = inttoptr i64 %76 to ptr
  %78 = getelementptr inbounds nuw %struct.anon, ptr %77, i32 0, i32 0
  %79 = load i32, ptr %78, align 4
  %80 = lshr i32 %79, 2
  %81 = and i32 %80, 1073741823
  %82 = sub i32 %81, 4
  store i32 %82, ptr %14, align 4
  call void @llvm.lifetime.start.p0(i64 8, ptr %15) #10
  %83 = load i64, ptr %13, align 8
  %84 = inttoptr i64 %83 to ptr
  %85 = getelementptr inbounds nuw %struct.anon, ptr %84, i32 0, i32 1
  %86 = getelementptr inbounds [0 x i8], ptr %85, i64 0, i64 0
  store ptr %86, ptr %15, align 8
  %87 = load ptr, ptr %4, align 8
  %88 = load i32, ptr %14, align 4
  call void @pq_sendint32(ptr noundef %87, i32 noundef %88)
  %89 = load ptr, ptr %4, align 8
  %90 = load ptr, ptr %15, align 8
  %91 = load i32, ptr %14, align 4
  call void @pq_sendbytes(ptr noundef %89, ptr noundef %90, i32 noundef %91)
  call void @llvm.lifetime.end.p0(i64 8, ptr %15) #10
  call void @llvm.lifetime.end.p0(i64 4, ptr %14) #10
  call void @llvm.lifetime.end.p0(i64 8, ptr %13) #10
  br label %92

92:                                               ; preds = %69, %64
  %93 = load ptr, ptr %4, align 8
  %94 = call ptr @pq_endtypsend(ptr noundef %93)
  %95 = call i64 @PointerGetDatum(ptr noundef %94)
  call void @llvm.lifetime.end.p0(i64 1, ptr %9) #10
  call void @llvm.lifetime.end.p0(i64 16, ptr %8) #10
  call void @llvm.lifetime.end.p0(i64 16, ptr %7) #10
  call void @llvm.lifetime.end.p0(i64 1, ptr %6) #10
  call void @llvm.lifetime.end.p0(i64 8, ptr %5) #10
  call void @llvm.lifetime.end.p0(i64 8, ptr %4) #10
  call void @llvm.lifetime.end.p0(i64 8, ptr %3) #10
  ret i64 %95
}