; Function Attrs: nounwind uwtable
define dso_local i64 @range_send(ptr noundef readonly captures(none) %0) local_unnamed_addr #0 {
  %2 = alloca %struct.RangeBound, align 8
  %3 = alloca %struct.RangeBound, align 8
  %4 = alloca i8, align 1
  %5 = getelementptr inbounds nuw i8, ptr %0, i64 32
  %6 = load i64, ptr %5, align 8
  %7 = inttoptr i64 %6 to ptr
  %8 = tail call ptr @pg_detoast_datum(ptr noundef %7) #14
  %9 = tail call ptr @makeStringInfo() #14
  call void @llvm.lifetime.start.p0(i64 16, ptr nonnull %2) #14
  call void @llvm.lifetime.start.p0(i64 16, ptr nonnull %3) #14
  call void @llvm.lifetime.start.p0(i64 1, ptr nonnull %4) #14
  tail call void @check_stack_depth() #14
  %10 = getelementptr inbounds nuw i8, ptr %8, i64 4
  %11 = load i32, ptr %10, align 4
  %12 = tail call fastcc ptr @get_range_io_data(ptr noundef %0, i32 noundef %11, i32 noundef 3)
  %13 = load ptr, ptr %12, align 8
  call void @range_deserialize(ptr noundef %13, ptr noundef %8, ptr noundef nonnull %2, ptr noundef nonnull %3, ptr noundef nonnull %4)
  %14 = load i32, ptr %8, align 4
  %15 = lshr i32 %14, 2
  %16 = zext nneg i32 %15 to i64
  %17 = getelementptr inbounds nuw i8, ptr %8, i64 %16
  %18 = getelementptr inbounds i8, ptr %17, i64 -1
  %19 = load i8, ptr %18, align 1
  tail call void @pq_begintypsend(ptr noundef %9) #14
  tail call void @enlargeStringInfo(ptr noundef %9, i32 noundef 1) #14
  tail call void @llvm.experimental.noalias.scope.decl(metadata !10)
  %20 = load ptr, ptr %9, align 8, !alias.scope !10
  %21 = getelementptr inbounds nuw i8, ptr %9, i64 8
  %22 = load i32, ptr %21, align 8, !alias.scope !10
  %23 = sext i32 %22 to i64
  %24 = getelementptr inbounds i8, ptr %20, i64 %23
  store i8 %19, ptr %24, align 1, !noalias !10
  %25 = add i32 %22, 1
  store i32 %25, ptr %21, align 8, !alias.scope !10
  %26 = and i8 %19, 41
  %.not = icmp eq i8 %26, 0
  br i1 %.not, label %27, label %41

27:                                               ; preds = %1
  %28 = getelementptr inbounds nuw i8, ptr %12, i64 8
  %29 = load i64, ptr %2, align 8
  %30 = tail call ptr @SendFunctionCall(ptr noundef nonnull %28, i64 noundef %29) #14
  %31 = load i32, ptr %30, align 4
  %32 = lshr i32 %31, 2
  %33 = add nsw i32 %32, -4
  %34 = getelementptr inbounds nuw i8, ptr %30, i64 4
  tail call void @enlargeStringInfo(ptr noundef nonnull %9, i32 noundef 4) #14
  tail call void @llvm.experimental.noalias.scope.decl(metadata !13)
  %35 = tail call i32 @llvm.bswap.i32(i32 range(i32 -4, 1073741820) %33)
  %36 = load ptr, ptr %9, align 8, !alias.scope !13
  %37 = load i32, ptr %21, align 8, !alias.scope !13
  %38 = sext i32 %37 to i64
  %39 = getelementptr inbounds i8, ptr %36, i64 %38
  store i32 %35, ptr %39, align 1, !noalias !13
  %40 = add i32 %37, 4
  store i32 %40, ptr %21, align 8, !alias.scope !13
  tail call void @pq_sendbytes(ptr noundef nonnull %9, ptr noundef nonnull %34, i32 noundef %33) #14
  br label %41

41:                                               ; preds = %27, %1
  %42 = and i8 %19, 81
  %.not27 = icmp eq i8 %42, 0
  br i1 %.not27, label %43, label %57

43:                                               ; preds = %41
  %44 = getelementptr inbounds nuw i8, ptr %12, i64 8
  %45 = load i64, ptr %3, align 8
  %46 = tail call ptr @SendFunctionCall(ptr noundef nonnull %44, i64 noundef %45) #14
  %47 = load i32, ptr %46, align 4
  %48 = lshr i32 %47, 2
  %49 = add nsw i32 %48, -4
  %50 = getelementptr inbounds nuw i8, ptr %46, i64 4
  tail call void @enlargeStringInfo(ptr noundef nonnull %9, i32 noundef 4) #14
  tail call void @llvm.experimental.noalias.scope.decl(metadata !16)
  %51 = tail call i32 @llvm.bswap.i32(i32 range(i32 -4, 1073741820) %49)
  %52 = load ptr, ptr %9, align 8, !alias.scope !16
  %53 = load i32, ptr %21, align 8, !alias.scope !16
  %54 = sext i32 %53 to i64
  %55 = getelementptr inbounds i8, ptr %52, i64 %54
  store i32 %51, ptr %55, align 1, !noalias !16
  %56 = add i32 %53, 4
  store i32 %56, ptr %21, align 8, !alias.scope !16
  tail call void @pq_sendbytes(ptr noundef nonnull %9, ptr noundef nonnull %50, i32 noundef %49) #14
  br label %57

57:                                               ; preds = %43, %41
  %58 = tail call ptr @pq_endtypsend(ptr noundef nonnull %9) #14
  %59 = ptrtoint ptr %58 to i64
  call void @llvm.lifetime.end.p0(i64 1, ptr nonnull %4) #14
  call void @llvm.lifetime.end.p0(i64 16, ptr nonnull %3) #14
  call void @llvm.lifetime.end.p0(i64 16, ptr nonnull %2) #14
  ret i64 %59
}